; Function Attrs: mustprogress nofree nounwind willreturn memory(write, argmem: none, inaccessiblemem: readwrite) uwtable
define noalias noundef ptr @Part_ManStart(i32 noundef %0, i32 noundef %1) local_unnamed_addr #0 {
  %calloc = tail call dereferenceable_or_null(40) ptr @calloc(i64 1, i64 40)
  store i32 %0, ptr %calloc, align 8, !tbaa !3
  %3 = getelementptr inbounds nuw i8, ptr %calloc, i64 4
  store i32 %1, ptr %3, align 4, !tbaa !11
  %4 = tail call noalias dereferenceable_or_null(16) ptr @malloc(i64 noundef 16) #23
  %5 = getelementptr inbounds nuw i8, ptr %4, i64 4
  store i32 0, ptr %5, align 4, !tbaa !12
  store i32 1000, ptr %4, align 8, !tbaa !14
  %6 = tail call noalias dereferenceable_or_null(8000) ptr @malloc(i64 noundef 8000) #23
  %7 = getelementptr inbounds nuw i8, ptr %4, i64 8
  store ptr %6, ptr %7, align 8, !tbaa !15
  %8 = getelementptr inbounds nuw i8, ptr %calloc, i64 24
  store ptr %4, ptr %8, align 8, !tbaa !16
  %9 = tail call noalias dereferenceable_or_null(16) ptr @malloc(i64 noundef 16) #23
  %10 = getelementptr inbounds nuw i8, ptr %9, i64 4
  store i32 0, ptr %10, align 4, !tbaa !12
  store i32 1000, ptr %9, align 8, !tbaa !14
  %11 = tail call noalias dereferenceable_or_null(8000) ptr @malloc(i64 noundef 8000) #23
  %12 = getelementptr inbounds nuw i8, ptr %9, i64 8
  store ptr %11, ptr %12, align 8, !tbaa !15
  %13 = getelementptr inbounds nuw i8, ptr %calloc, i64 32
  store ptr %9, ptr %13, align 8, !tbaa !17
  ret ptr %calloc
}